target datalayout = "e-m:e-p270:32:32-p271:32:32-p272:64:64-i64:64-i128:128-f80:128-n8:16:32:64-S128"
target triple = "x86_64-pc-linux-gnu"

%"class.zxing::qrcode::QRCodeReader" = type <{ %"class.zxing::Reader.base", [4 x i8], %"class.zxing::qrcode::Decoder", i32, i32, %"class.zxing::DecodeHints", [7 x i8], %"struct.zxing::qrcode::QBAR_QRCODE_DETECT_INFO", i32, i32, i32, i32, i32, i32, i32, i32, i32, i32, i32, [4 x i8] }>
%"class.zxing::Reader.base" = type { %"class.zxing::Counted.base" }
%"class.zxing::Counted.base" = type <{ ptr, i32 }>
%"class.zxing::qrcode::Decoder" = type <{ i32, float, %"class.zxing::ReedSolomonDecoder", i32, [4 x i8] }>
%"class.zxing::ReedSolomonDecoder" = type { %"class.zxing::Ref" }
%"class.zxing::Ref" = type { ptr }
%"class.zxing::DecodeHints" = type { i8 }
%"struct.zxing::qrcode::QBAR_QRCODE_DETECT_INFO" = type { i32, i32, float, float, i32, float, %"class.std::vector" }
%"class.std::vector" = type { %"struct.std::_Vector_base" }
%"struct.std::_Vector_base" = type { %"struct.std::_Vector_base<zxing::Ref<zxing::ResultPoint>, std::allocator<zxing::Ref<zxing::ResultPoint>>>::_Vector_impl" }
%"struct.std::_Vector_base<zxing::Ref<zxing::ResultPoint>, std::allocator<zxing::Ref<zxing::ResultPoint>>>::_Vector_impl" = type { %"struct.std::_Vector_base<zxing::Ref<zxing::ResultPoint>, std::allocator<zxing::Ref<zxing::ResultPoint>>>::_Vector_impl_data" }
%"struct.std::_Vector_base<zxing::Ref<zxing::ResultPoint>, std::allocator<zxing::Ref<zxing::ResultPoint>>>::_Vector_impl_data" = type { ptr, ptr, ptr }

; Function Attrs: mustprogress nounwind uwtable
define hidden noundef i32 @_ZN5zxing6qrcode12QRCodeReader34getRecommendedImageSizeTypeInteralEv(ptr noundef nonnull align 8 dereferenceable(148) %0) #4 align 2 {
  %2 = alloca ptr, align 8
  store ptr %0, ptr %2, align 8, !tbaa !3
  %3 = load ptr, ptr %2, align 8
  %4 = call i64 @time(ptr noundef null) #2
  %5 = getelementptr inbounds nuw %"class.zxing::qrcode::QRCodeReader", ptr %3, i32 0, i32 8
  %6 = load i32, ptr %5, align 8, !tbaa !31
  %7 = zext i32 %6 to i64
  %8 = sub nsw i64 %4, %7
  %9 = icmp sgt i64 %8, 30
  br i1 %9, label %10, label %12

10:                                               ; preds = %1
  %11 = getelementptr inbounds nuw %"class.zxing::qrcode::QRCodeReader", ptr %3, i32 0, i32 17
  store i32 0, ptr %11, align 4, !tbaa !39
  br label %12

12:                                               ; preds = %10, %1
  %13 = getelementptr inbounds nuw %"class.zxing::qrcode::QRCodeReader", ptr %3, i32 0, i32 17
  %14 = load i32, ptr %13, align 4, !tbaa !39
  ret i32 %14
}

; Function Attrs: mustprogress nounwind uwtable
define hidden void @_ZN5zxing6qrcode12QRCodeReader11setDecodeIDEj(ptr noundef nonnull align 8 dereferenceable(148) %0, i32 noundef %1) unnamed_addr #4 align 2 {
  %3 = alloca ptr, align 8
  %4 = alloca i32, align 4
  store ptr %0, ptr %3, align 8, !tbaa !3
  store i32 %1, ptr %4, align 4, !tbaa !75
  %5 = load ptr, ptr %3, align 8
  %6 = call i64 @time(ptr noundef null) #2
  %7 = trunc i64 %6 to i32
  %8 = getelementptr inbounds nuw %"class.zxing::qrcode::QRCodeReader", ptr %5, i32 0, i32 8
  store i32 %7, ptr %8, align 8, !tbaa !31
  %9 = load i32, ptr %4, align 4, !tbaa !75
  %10 = getelementptr inbounds nuw %"class.zxing::qrcode::QRCodeReader", ptr %5, i32 0, i32 10
  store i32 %9, ptr %10, align 8, !tbaa !33
  %11 = getelementptr inbounds nuw %"class.zxing::qrcode::QRCodeReader", ptr %5, i32 0, i32 10
  %12 = load i32, ptr %11, align 8, !tbaa !33
  %13 = getelementptr inbounds nuw %"class.zxing::qrcode::QRCodeReader", ptr %5, i32 0, i32 9
  %14 = load i32, ptr %13, align 4, !tbaa !32
  %15 = icmp ne i32 %12, %14
  br i1 %15, label %16, label %30

16:                                               ; preds = %2
  %17 = getelementptr inbounds nuw %"class.zxing::qrcode::QRCodeReader", ptr %5, i32 0, i32 10
  %18 = load i32, ptr %17, align 8, !tbaa !33
  %19 = getelementptr inbounds nuw %"class.zxing::qrcode::QRCodeReader", ptr %5, i32 0, i32 9
  store i32 %18, ptr %19, align 4, !tbaa !32
  %20 = getelementptr inbounds nuw %"class.zxing::qrcode::QRCodeReader", ptr %5, i32 0, i32 12
  %21 = load i32, ptr %20, align 8, !tbaa !35
  %22 = getelementptr inbounds nuw %"class.zxing::qrcode::QRCodeReader", ptr %5, i32 0, i32 11
  store i32 %21, ptr %22, align 4, !tbaa !34
  %23 = getelementptr inbounds nuw %"class.zxing::qrcode::QRCodeReader", ptr %5, i32 0, i32 15
  %24 = load i32, ptr %23, align 4, !tbaa !37
  %25 = getelementptr inbounds nuw %"class.zxing::qrcode::QRCodeReader", ptr %5, i32 0, i32 14
  store i32 %24, ptr %25, align 8, !tbaa !36
  %26 = call noundef i32 @_ZN5zxing6qrcode12QRCodeReader34getRecommendedImageSizeTypeInteralEv(ptr noundef nonnull align 8 dereferenceable(148) %5)
  %27 = getelementptr inbounds nuw %"class.zxing::qrcode::QRCodeReader", ptr %5, i32 0, i32 16
  store i32 %26, ptr %27, align 8, !tbaa !38
  %28 = getelementptr inbounds nuw %"class.zxing::qrcode::QRCodeReader", ptr %5, i32 0, i32 12
  store i32 0, ptr %28, align 8, !tbaa !35
  %29 = getelementptr inbounds nuw %"class.zxing::qrcode::QRCodeReader", ptr %5, i32 0, i32 17
  store i32 0, ptr %29, align 4, !tbaa !39
  br label %30

30:                                               ; preds = %16, %2
  ret void
}