; Function Attrs: mustprogress nounwind uwtable
define hidden void @_ZN5zxing6qrcode12QRCodeReader11setDecodeIDEj(ptr noundef nonnull align 8 captures(none) dereferenceable(148) initializes((104, 108), (112, 116)) %0, i32 noundef %1) unnamed_addr #7 align 2 {
  %3 = tail call i64 @time(ptr noundef null) #20
  %4 = trunc i64 %3 to i32
  %5 = getelementptr inbounds nuw i8, ptr %0, i64 104
  store i32 %4, ptr %5, align 8, !tbaa !199
  %6 = getelementptr inbounds nuw i8, ptr %0, i64 112
  store i32 %1, ptr %6, align 8, !tbaa !201
  %7 = getelementptr inbounds nuw i8, ptr %0, i64 108
  %8 = load i32, ptr %7, align 4, !tbaa !202
  %.not = icmp eq i32 %1, %8
  br i1 %.not, label %23, label %_ZN5zxing6qrcode12QRCodeReader34getRecommendedImageSizeTypeInteralEv.exit

_ZN5zxing6qrcode12QRCodeReader34getRecommendedImageSizeTypeInteralEv.exit: ; preds = %2
  store i32 %1, ptr %7, align 4, !tbaa !202
  %9 = getelementptr inbounds nuw i8, ptr %0, i64 120
  %10 = load i32, ptr %9, align 8, !tbaa !97
  %11 = getelementptr inbounds nuw i8, ptr %0, i64 116
  store i32 %10, ptr %11, align 4, !tbaa !203
  %12 = getelementptr inbounds nuw i8, ptr %0, i64 132
  %13 = load i32, ptr %12, align 4, !tbaa !204
  %14 = getelementptr inbounds nuw i8, ptr %0, i64 128
  store i32 %13, ptr %14, align 8, !tbaa !205
  %15 = tail call i64 @time(ptr noundef null) #20
  %16 = load i32, ptr %5, align 8, !tbaa !199
  %17 = zext i32 %16 to i64
  %18 = sub nsw i64 %15, %17
  %19 = icmp sgt i64 %18, 30
  %20 = getelementptr inbounds nuw i8, ptr %0, i64 140
  %.pre.i = load i32, ptr %20, align 4
  %21 = select i1 %19, i32 0, i32 %.pre.i
  %22 = getelementptr inbounds nuw i8, ptr %0, i64 136
  store i32 %21, ptr %22, align 8, !tbaa !206
  store i32 0, ptr %9, align 8, !tbaa !97
  store i32 0, ptr %20, align 4, !tbaa !200
  br label %23

23:                                               ; preds = %_ZN5zxing6qrcode12QRCodeReader34getRecommendedImageSizeTypeInteralEv.exit, %2
  ret void
}